target datalayout = "e-m:e-p270:32:32-p271:32:32-p272:64:64-i64:64-i128:128-f80:128-n8:16:32:64-S128"
target triple = "x86_64-pc-linux-gnu"

%struct.mbedtls_asn1_buf = type { i32, i64, ptr }
%struct.mbedtls_asn1_named_data = type { %struct.mbedtls_asn1_buf, %struct.mbedtls_asn1_buf, ptr, i8 }
%struct.mbedtls_x509_subject_alternative_name = type { i32, %union.anon }
%union.anon = type { %struct.mbedtls_x509_san_other_name }
%struct.mbedtls_x509_san_other_name = type { %struct.mbedtls_asn1_buf, %union.anon.0 }
%union.anon.0 = type { %struct.anon }
%struct.anon = type { %struct.mbedtls_asn1_buf, %struct.mbedtls_asn1_buf }
%struct.mbedtls_asn1_sequence = type { %struct.mbedtls_asn1_buf, ptr }

@.str = private unnamed_addr constant [118 x i8] c"generated/home/dtcxzyw/WorkSpace/Projects/compilers/llvm-opt-benchmark/bench/lief/bench_build/mbed_src/library/x509.c\00", align 1

; Function Attrs: nounwind uwtable
define hidden void @mbedtls_x509_free_subject_alt_name(ptr noundef %0) #0 {
  %2 = alloca ptr, align 8
  store ptr %0, ptr %2, align 8, !tbaa !69
  %3 = load ptr, ptr %2, align 8, !tbaa !69
  %4 = getelementptr inbounds nuw %struct.mbedtls_x509_subject_alternative_name, ptr %3, i32 0, i32 0
  %5 = load i32, ptr %4, align 8, !tbaa !71
  %6 = icmp eq i32 %5, 4
  br i1 %6, label %7, label %12

7:                                                ; preds = %1
  %8 = load ptr, ptr %2, align 8, !tbaa !69
  %9 = getelementptr inbounds nuw %struct.mbedtls_x509_subject_alternative_name, ptr %8, i32 0, i32 1
  %10 = getelementptr inbounds nuw %struct.mbedtls_asn1_named_data, ptr %9, i32 0, i32 2
  %11 = load ptr, ptr %10, align 8, !tbaa !15
  call void @mbedtls_asn1_free_named_data_list_shallow(ptr noundef %11)
  br label %12

12:                                               ; preds = %7, %1
  ret void
}

; Function Attrs: inlinehint nounwind uwtable
define internal i32 @mbedtls_error_add(i32 noundef %0, i32 noundef %1, ptr noundef %2, i32 noundef %3) #2 {
  %5 = alloca i32, align 4
  %6 = alloca i32, align 4
  %7 = alloca ptr, align 8
  %8 = alloca i32, align 4
  store i32 %0, ptr %5, align 4, !tbaa !13
  store i32 %1, ptr %6, align 4, !tbaa !13
  store ptr %2, ptr %7, align 8, !tbaa !9
  store i32 %3, ptr %8, align 4, !tbaa !13
  %9 = load i32, ptr %5, align 4, !tbaa !13
  %10 = load i32, ptr %6, align 4, !tbaa !13
  %11 = add nsw i32 %9, %10
  ret i32 %11
}

; Function Attrs: nounwind uwtable
define hidden i32 @mbedtls_x509_get_subject_alt_name_ext(ptr noundef %0, ptr noundef %1, ptr noundef %2) #0 {
  %4 = alloca i32, align 4
  %5 = alloca ptr, align 8
  %6 = alloca ptr, align 8
  %7 = alloca ptr, align 8
  %8 = alloca i32, align 4
  %9 = alloca i64, align 8
  %10 = alloca ptr, align 8
  %11 = alloca %struct.mbedtls_x509_subject_alternative_name, align 8
  %12 = alloca %struct.mbedtls_asn1_buf, align 8
  %13 = alloca i32, align 4
  store ptr %0, ptr %5, align 8, !tbaa !3
  store ptr %1, ptr %6, align 8, !tbaa !9
  store ptr %2, ptr %7, align 8, !tbaa !62
  call void @llvm.lifetime.start.p0(i64 4, ptr %8) #9
  store i32 -110, ptr %8, align 4, !tbaa !13
  call void @llvm.lifetime.start.p0(i64 8, ptr %9) #9
  call void @llvm.lifetime.start.p0(i64 8, ptr %10) #9
  %14 = load ptr, ptr %7, align 8, !tbaa !62
  store ptr %14, ptr %10, align 8, !tbaa !62
  br label %15

15:                                               ; preds = %98, %3
  %16 = load ptr, ptr %5, align 8, !tbaa !3
  %17 = load ptr, ptr %16, align 8, !tbaa !9
  %18 = load ptr, ptr %6, align 8, !tbaa !9
  %19 = icmp ult ptr %17, %18
  br i1 %19, label %20, label %99

20:                                               ; preds = %15
  call void @llvm.lifetime.start.p0(i64 80, ptr %11) #9
  call void @llvm.lifetime.start.p0(i64 24, ptr %12) #9
  call void @llvm.memset.p0.i64(ptr align 8 %11, i8 0, i64 80, i1 false)
  %21 = load ptr, ptr %5, align 8, !tbaa !3
  %22 = load ptr, ptr %21, align 8, !tbaa !9
  %23 = load i8, ptr %22, align 1, !tbaa !15
  %24 = zext i8 %23 to i32
  %25 = getelementptr inbounds nuw %struct.mbedtls_asn1_buf, ptr %12, i32 0, i32 0
  store i32 %24, ptr %25, align 8, !tbaa !16
  %26 = load ptr, ptr %5, align 8, !tbaa !3
  %27 = load ptr, ptr %26, align 8, !tbaa !9
  %28 = getelementptr inbounds nuw i8, ptr %27, i32 1
  store ptr %28, ptr %26, align 8, !tbaa !9
  %29 = load ptr, ptr %5, align 8, !tbaa !3
  %30 = load ptr, ptr %6, align 8, !tbaa !9
  %31 = call i32 @mbedtls_asn1_get_len(ptr noundef %29, ptr noundef %30, ptr noundef %9)
  store i32 %31, ptr %8, align 4, !tbaa !13
  %32 = icmp ne i32 %31, 0
  br i1 %32, label %33, label %36

33:                                               ; preds = %20
  %34 = load i32, ptr %8, align 4, !tbaa !13
  %35 = call i32 @mbedtls_error_add(i32 noundef -9472, i32 noundef %34, ptr noundef @.str, i32 noundef 1230)
  store i32 %35, ptr %4, align 4
  store i32 1, ptr %13, align 4
  br label %96

36:                                               ; preds = %20
  %37 = load ptr, ptr %5, align 8, !tbaa !3
  %38 = load ptr, ptr %37, align 8, !tbaa !9
  %39 = getelementptr inbounds nuw %struct.mbedtls_asn1_buf, ptr %12, i32 0, i32 2
  store ptr %38, ptr %39, align 8, !tbaa !19
  %40 = load i64, ptr %9, align 8, !tbaa !24
  %41 = getelementptr inbounds nuw %struct.mbedtls_asn1_buf, ptr %12, i32 0, i32 1
  store i64 %40, ptr %41, align 8, !tbaa !20
  %42 = getelementptr inbounds nuw %struct.mbedtls_asn1_buf, ptr %12, i32 0, i32 0
  %43 = load i32, ptr %42, align 8, !tbaa !16
  %44 = and i32 %43, 192
  %45 = icmp ne i32 %44, 128
  br i1 %45, label %46, label %48

46:                                               ; preds = %36
  %47 = call i32 @mbedtls_error_add(i32 noundef -9472, i32 noundef -98, ptr noundef @.str, i32 noundef 1239)
  store i32 %47, ptr %4, align 4
  store i32 1, ptr %13, align 4
  br label %96

48:                                               ; preds = %36
  %49 = call i32 @mbedtls_x509_parse_subject_alt_name(ptr noundef %12, ptr noundef %11)
  store i32 %49, ptr %8, align 4, !tbaa !13
  %50 = load i32, ptr %8, align 4, !tbaa !13
  %51 = icmp ne i32 %50, 0
  br i1 %51, label %52, label %62

52:                                               ; preds = %48
  %53 = load i32, ptr %8, align 4, !tbaa !13
  %54 = icmp ne i32 %53, -8320
  br i1 %54, label %55, label %62

55:                                               ; preds = %52
  %56 = load ptr, ptr %7, align 8, !tbaa !62
  %57 = getelementptr inbounds nuw %struct.mbedtls_asn1_sequence, ptr %56, i32 0, i32 1
  %58 = load ptr, ptr %57, align 8, !tbaa !64
  call void @mbedtls_asn1_sequence_free(ptr noundef %58)
  %59 = load ptr, ptr %7, align 8, !tbaa !62
  %60 = getelementptr inbounds nuw %struct.mbedtls_asn1_sequence, ptr %59, i32 0, i32 1
  store ptr null, ptr %60, align 8, !tbaa !64
  %61 = load i32, ptr %8, align 4, !tbaa !13
  store i32 %61, ptr %4, align 4
  store i32 1, ptr %13, align 4
  br label %96

62:                                               ; preds = %52, %48
  call void @mbedtls_x509_free_subject_alt_name(ptr noundef %11)
  %63 = load ptr, ptr %10, align 8, !tbaa !62
  %64 = getelementptr inbounds nuw %struct.mbedtls_asn1_sequence, ptr %63, i32 0, i32 0
  %65 = getelementptr inbounds nuw %struct.mbedtls_asn1_buf, ptr %64, i32 0, i32 2
  %66 = load ptr, ptr %65, align 8, !tbaa !66
  %67 = icmp ne ptr %66, null
  br i1 %67, label %68, label %88

68:                                               ; preds = %62
  %69 = load ptr, ptr %10, align 8, !tbaa !62
  %70 = getelementptr inbounds nuw %struct.mbedtls_asn1_sequence, ptr %69, i32 0, i32 1
  %71 = load ptr, ptr %70, align 8, !tbaa !64
  %72 = icmp ne ptr %71, null
  br i1 %72, label %73, label %74

73:                                               ; preds = %68
  store i32 -9472, ptr %4, align 4
  store i32 1, ptr %13, align 4
  br label %96

74:                                               ; preds = %68
  %75 = call noalias ptr @calloc(i64 noundef 1, i64 noundef 32) #11
  %76 = load ptr, ptr %10, align 8, !tbaa !62
  %77 = getelementptr inbounds nuw %struct.mbedtls_asn1_sequence, ptr %76, i32 0, i32 1
  store ptr %75, ptr %77, align 8, !tbaa !64
  %78 = load ptr, ptr %10, align 8, !tbaa !62
  %79 = getelementptr inbounds nuw %struct.mbedtls_asn1_sequence, ptr %78, i32 0, i32 1
  %80 = load ptr, ptr %79, align 8, !tbaa !64
  %81 = icmp eq ptr %80, null
  br i1 %81, label %82, label %84

82:                                               ; preds = %74
  %83 = call i32 @mbedtls_error_add(i32 noundef -9472, i32 noundef -106, ptr noundef @.str, i32 noundef 1268)
  store i32 %83, ptr %4, align 4
  store i32 1, ptr %13, align 4
  br label %96

84:                                               ; preds = %74
  %85 = load ptr, ptr %10, align 8, !tbaa !62
  %86 = getelementptr inbounds nuw %struct.mbedtls_asn1_sequence, ptr %85, i32 0, i32 1
  %87 = load ptr, ptr %86, align 8, !tbaa !64
  store ptr %87, ptr %10, align 8, !tbaa !62
  br label %88

88:                                               ; preds = %84, %62
  %89 = load ptr, ptr %10, align 8, !tbaa !62
  %90 = getelementptr inbounds nuw %struct.mbedtls_asn1_sequence, ptr %89, i32 0, i32 0
  call void @llvm.memcpy.p0.p0.i64(ptr align 8 %90, ptr align 8 %12, i64 24, i1 false), !tbaa.struct !67
  %91 = getelementptr inbounds nuw %struct.mbedtls_asn1_buf, ptr %12, i32 0, i32 1
  %92 = load i64, ptr %91, align 8, !tbaa !20
  %93 = load ptr, ptr %5, align 8, !tbaa !3
  %94 = load ptr, ptr %93, align 8, !tbaa !9
  %95 = getelementptr inbounds nuw i8, ptr %94, i64 %92
  store ptr %95, ptr %93, align 8, !tbaa !9
  store i32 0, ptr %13, align 4
  br label %96

96:                                               ; preds = %88, %82, %73, %55, %46, %33
  call void @llvm.lifetime.end.p0(i64 24, ptr %12) #9
  call void @llvm.lifetime.end.p0(i64 80, ptr %11) #9
  %97 = load i32, ptr %13, align 4
  switch i32 %97, label %109 [
    i32 0, label %98
  ]

98:                                               ; preds = %96
  br label %15, !llvm.loop !68

99:                                               ; preds = %15
  %100 = load ptr, ptr %10, align 8, !tbaa !62
  %101 = getelementptr inbounds nuw %struct.mbedtls_asn1_sequence, ptr %100, i32 0, i32 1
  store ptr null, ptr %101, align 8, !tbaa !64
  %102 = load ptr, ptr %5, align 8, !tbaa !3
  %103 = load ptr, ptr %102, align 8, !tbaa !9
  %104 = load ptr, ptr %6, align 8, !tbaa !9
  %105 = icmp ne ptr %103, %104
  br i1 %105, label %106, label %108

106:                                              ; preds = %99
  %107 = call i32 @mbedtls_error_add(i32 noundef -9472, i32 noundef -102, ptr noundef @.str, i32 noundef 1283)
  store i32 %107, ptr %4, align 4
  store i32 1, ptr %13, align 4
  br label %109

108:                                              ; preds = %99
  store i32 0, ptr %4, align 4
  store i32 1, ptr %13, align 4
  br label %109

109:                                              ; preds = %108, %106, %96
  call void @llvm.lifetime.end.p0(i64 8, ptr %10) #9
  call void @llvm.lifetime.end.p0(i64 8, ptr %9) #9
  call void @llvm.lifetime.end.p0(i64 4, ptr %8) #9
  %110 = load i32, ptr %4, align 4
  ret i32 %110
}