; Function Attrs: nounwind uwtable
define hidden i32 @mbedtls_x509_get_subject_alt_name_ext(ptr noundef %0, ptr noundef %1, ptr noundef captures(none) %2) local_unnamed_addr #0 {
  %4 = alloca i64, align 8
  %5 = alloca %struct.mbedtls_x509_subject_alternative_name, align 8
  %6 = alloca %struct.mbedtls_asn1_buf, align 8
  call void @llvm.lifetime.start.p0(i64 8, ptr nonnull %4) #13
  %7 = load ptr, ptr %0, align 8, !tbaa !3
  %8 = icmp ult ptr %7, %1
  br i1 %8, label %.lr.ph, label %._crit_edge

.lr.ph:                                           ; preds = %3
  %9 = getelementptr inbounds nuw i8, ptr %6, i64 16
  %10 = getelementptr inbounds nuw i8, ptr %6, i64 8
  %11 = getelementptr inbounds nuw i8, ptr %5, i64 56
  br label %12

12:                                               ; preds = %.lr.ph, %42
  %13 = phi ptr [ %7, %.lr.ph ], [ %45, %42 ]
  %.02652 = phi ptr [ %2, %.lr.ph ], [ %.2, %42 ]
  call void @llvm.lifetime.start.p0(i64 80, ptr nonnull %5) #13
  call void @llvm.lifetime.start.p0(i64 24, ptr nonnull %6) #13
  call void @llvm.memset.p0.i64(ptr noundef nonnull align 8 dereferenceable(80) %5, i8 0, i64 80, i1 false)
  %14 = load i8, ptr %13, align 1, !tbaa !8
  %15 = zext i8 %14 to i32
  store i32 %15, ptr %6, align 8, !tbaa !9
  %16 = getelementptr inbounds nuw i8, ptr %13, i64 1
  store ptr %16, ptr %0, align 8, !tbaa !3
  %17 = call i32 @mbedtls_asn1_get_len(ptr noundef nonnull %0, ptr noundef nonnull %1, ptr noundef nonnull %4) #13
  %.not35 = icmp eq i32 %17, 0
  br i1 %.not35, label %20, label %18

18:                                               ; preds = %12
  %19 = add nsw i32 %17, -9472
  br label %.thread

20:                                               ; preds = %12
  %21 = load ptr, ptr %0, align 8, !tbaa !3
  store ptr %21, ptr %9, align 8, !tbaa !13
  %22 = load i64, ptr %4, align 8, !tbaa !16
  store i64 %22, ptr %10, align 8, !tbaa !14
  %23 = and i32 %15, 192
  %.not36 = icmp eq i32 %23, 128
  br i1 %.not36, label %24, label %.thread

24:                                               ; preds = %20
  %25 = call i32 @mbedtls_x509_parse_subject_alt_name(ptr noundef nonnull %6, ptr noundef nonnull %5)
  switch i32 %25, label %26 [
    i32 -8320, label %29
    i32 0, label %29
  ]

26:                                               ; preds = %24
  %27 = getelementptr inbounds nuw i8, ptr %2, i64 24
  %28 = load ptr, ptr %27, align 8, !tbaa !49
  call void @mbedtls_asn1_sequence_free(ptr noundef %28) #13
  store ptr null, ptr %27, align 8, !tbaa !49
  br label %.thread

29:                                               ; preds = %24, %24
  %30 = load i32, ptr %5, align 8, !tbaa !52
  %31 = icmp eq i32 %30, 4
  br i1 %31, label %32, label %mbedtls_x509_free_subject_alt_name.exit

32:                                               ; preds = %29
  %33 = load ptr, ptr %11, align 8, !tbaa !8
  call void @mbedtls_asn1_free_named_data_list_shallow(ptr noundef %33) #13
  br label %mbedtls_x509_free_subject_alt_name.exit

mbedtls_x509_free_subject_alt_name.exit:          ; preds = %29, %32
  %34 = getelementptr inbounds nuw i8, ptr %.02652, i64 16
  %35 = load ptr, ptr %34, align 8, !tbaa !54
  %.not37 = icmp eq ptr %35, null
  br i1 %.not37, label %42, label %36

36:                                               ; preds = %mbedtls_x509_free_subject_alt_name.exit
  %37 = getelementptr inbounds nuw i8, ptr %.02652, i64 24
  %38 = load ptr, ptr %37, align 8, !tbaa !49
  %.not38 = icmp eq ptr %38, null
  br i1 %.not38, label %39, label %.thread

39:                                               ; preds = %36
  %40 = call noalias dereferenceable_or_null(32) ptr @calloc(i64 noundef 1, i64 noundef 32) #14
  store ptr %40, ptr %37, align 8, !tbaa !49
  %41 = icmp eq ptr %40, null
  br i1 %41, label %.thread, label %42

.thread:                                          ; preds = %36, %20, %39, %18, %26
  %.128.ph = phi i32 [ %25, %26 ], [ %19, %18 ], [ -9472, %36 ], [ -9570, %20 ], [ -9578, %39 ]
  call void @llvm.lifetime.end.p0(i64 24, ptr nonnull %6) #13
  call void @llvm.lifetime.end.p0(i64 80, ptr nonnull %5) #13
  br label %48

42:                                               ; preds = %mbedtls_x509_free_subject_alt_name.exit, %39
  %.2 = phi ptr [ %.02652, %mbedtls_x509_free_subject_alt_name.exit ], [ %40, %39 ]
  call void @llvm.memcpy.p0.p0.i64(ptr noundef nonnull align 8 dereferenceable(24) %.2, ptr noundef nonnull align 8 dereferenceable(24) %6, i64 24, i1 false), !tbaa.struct !55
  %43 = load i64, ptr %10, align 8, !tbaa !14
  %44 = load ptr, ptr %0, align 8, !tbaa !3
  %45 = getelementptr inbounds nuw i8, ptr %44, i64 %43
  store ptr %45, ptr %0, align 8, !tbaa !3
  call void @llvm.lifetime.end.p0(i64 24, ptr nonnull %6) #13
  call void @llvm.lifetime.end.p0(i64 80, ptr nonnull %5) #13
  %46 = icmp ult ptr %45, %1
  br i1 %46, label %12, label %._crit_edge, !llvm.loop !56

._crit_edge:                                      ; preds = %42, %3
  %.026.lcssa = phi ptr [ %2, %3 ], [ %.2, %42 ]
  %.lcssa42 = phi ptr [ %7, %3 ], [ %45, %42 ]
  %47 = getelementptr inbounds nuw i8, ptr %.026.lcssa, i64 24
  store ptr null, ptr %47, align 8, !tbaa !49
  %.not = icmp eq ptr %.lcssa42, %1
  %spec.select = select i1 %.not, i32 0, i32 -9574
  br label %48

48:                                               ; preds = %._crit_edge, %.thread
  %.229 = phi i32 [ %.128.ph, %.thread ], [ %spec.select, %._crit_edge ]
  call void @llvm.lifetime.end.p0(i64 8, ptr nonnull %4) #13
  ret i32 %.229
}